; Function Attrs: nounwind uwtable
define hidden noundef zeroext i1 @SDL_EGL_DestroyContext(ptr noundef readonly captures(none) %0, ptr noundef %1) local_unnamed_addr #0 {
  %3 = getelementptr inbounds nuw i8, ptr %0, i64 1672
  %4 = load ptr, ptr %3, align 8
  %.not = icmp eq ptr %4, null
  %.not10 = icmp eq ptr %1, null
  %or.cond = or i1 %.not10, %.not
  br i1 %or.cond, label %11, label %5

5:                                                ; preds = %2
  %6 = getelementptr inbounds nuw i8, ptr %4, i64 112
  %7 = load ptr, ptr %6, align 8
  %8 = getelementptr inbounds nuw i8, ptr %4, i64 16
  %9 = load ptr, ptr %8, align 8
  %10 = tail call i32 %7(ptr noundef %9, ptr noundef nonnull %1) #7
  br label %11

11:                                               ; preds = %5, %2
  ret i1 true
}